; Function Attrs: nounwind uwtable
define hidden range(i32 -901, 1) i32 @nghttp2_bufs_wrap_init(ptr noundef writeonly captures(none) %0, ptr noundef %1, i64 noundef %2, ptr noundef %3) local_unnamed_addr #1 {
  %5 = tail call ptr @nghttp2_mem_malloc(ptr noundef %3, i64 noundef 48) #10
  %6 = icmp eq ptr %5, null
  br i1 %6, label %22, label %7

7:                                                ; preds = %4
  store ptr null, ptr %5, align 8, !tbaa !27
  %8 = getelementptr inbounds nuw i8, ptr %5, i64 8
  %9 = getelementptr inbounds nuw i8, ptr %5, i64 16
  store ptr %1, ptr %9, align 8, !tbaa !12
  %10 = getelementptr inbounds nuw i8, ptr %5, i64 40
  store ptr %1, ptr %10, align 8, !tbaa !11
  %11 = getelementptr inbounds nuw i8, ptr %5, i64 32
  store ptr %1, ptr %11, align 8, !tbaa !10
  %12 = getelementptr inbounds nuw i8, ptr %5, i64 24
  store ptr %1, ptr %12, align 8, !tbaa !3
  store ptr %1, ptr %8, align 8, !tbaa !9
  %.not.i = icmp eq i64 %2, 0
  br i1 %.not.i, label %nghttp2_buf_wrap_init.exit, label %13

13:                                               ; preds = %7
  %14 = getelementptr inbounds nuw i8, ptr %1, i64 %2
  store ptr %14, ptr %9, align 8, !tbaa !12
  br label %nghttp2_buf_wrap_init.exit

nghttp2_buf_wrap_init.exit:                       ; preds = %7, %13
  %15 = getelementptr inbounds nuw i8, ptr %0, i64 16
  store ptr %3, ptr %15, align 8, !tbaa !13
  %16 = getelementptr inbounds nuw i8, ptr %0, i64 56
  store i64 0, ptr %16, align 8, !tbaa !17
  store ptr %5, ptr %0, align 8, !tbaa !18
  %17 = getelementptr inbounds nuw i8, ptr %0, i64 8
  store ptr %5, ptr %17, align 8, !tbaa !19
  %18 = getelementptr inbounds nuw i8, ptr %0, i64 24
  store i64 %2, ptr %18, align 8, !tbaa !23
  %19 = getelementptr inbounds nuw i8, ptr %0, i64 40
  store i64 1, ptr %19, align 8, !tbaa !24
  %20 = getelementptr inbounds nuw i8, ptr %0, i64 32
  store i64 1, ptr %20, align 8, !tbaa !25
  %21 = getelementptr inbounds nuw i8, ptr %0, i64 48
  store i64 1, ptr %21, align 8, !tbaa !26
  br label %22

22:                                               ; preds = %4, %nghttp2_buf_wrap_init.exit
  %.0 = phi i32 [ 0, %nghttp2_buf_wrap_init.exit ], [ -901, %4 ]
  ret i32 %.0
}